target datalayout = "e-m:e-p270:32:32-p271:32:32-p272:64:64-i64:64-i128:128-f80:128-n8:16:32:64-S128"
target triple = "x86_64-pc-linux-gnu"

%"class.pxrInternal_v0_24__pxrReserved__::SdfValueTypeName" = type { ptr }
%"class.pxrInternal_v0_24__pxrReserved__::TfToken" = type { %"class.pxrInternal_v0_24__pxrReserved__::TfPointerAndBits" }
%"class.pxrInternal_v0_24__pxrReserved__::TfPointerAndBits" = type { ptr }
%"class.pxrInternal_v0_24__pxrReserved__::Sdf_ValueTypeImpl" = type { ptr, %"class.pxrInternal_v0_24__pxrReserved__::TfToken", ptr, ptr }

@_ZN32pxrInternal_v0_24__pxrReserved__16SdfValueTypeNameC1EPKNS_17Sdf_ValueTypeImplE = unnamed_addr alias void (ptr, ptr), ptr @_ZN32pxrInternal_v0_24__pxrReserved__16SdfValueTypeNameC2EPKNS_17Sdf_ValueTypeImplE

; Function Attrs: mustprogress uwtable
define ptr @_ZNK32pxrInternal_v0_24__pxrReserved__16SdfValueTypeName12GetArrayTypeEv(ptr noundef nonnull align 8 dereferenceable(8) %0) #1 align 2 {
  %2 = alloca %"class.pxrInternal_v0_24__pxrReserved__::SdfValueTypeName", align 8
  %3 = alloca ptr, align 8
  store ptr %0, ptr %3, align 8
  %4 = load ptr, ptr %3, align 8
  %5 = getelementptr inbounds nuw %"class.pxrInternal_v0_24__pxrReserved__::SdfValueTypeName", ptr %4, i32 0, i32 0
  %6 = load ptr, ptr %5, align 8
  %7 = getelementptr inbounds nuw %"class.pxrInternal_v0_24__pxrReserved__::Sdf_ValueTypeImpl", ptr %6, i32 0, i32 3
  %8 = load ptr, ptr %7, align 8
  call void @_ZN32pxrInternal_v0_24__pxrReserved__16SdfValueTypeNameC1EPKNS_17Sdf_ValueTypeImplE(ptr noundef nonnull align 8 dereferenceable(8) %2, ptr noundef %8)
  %9 = getelementptr inbounds nuw %"class.pxrInternal_v0_24__pxrReserved__::SdfValueTypeName", ptr %2, i32 0, i32 0
  %10 = load ptr, ptr %9, align 8
  ret ptr %10
}