; Function Attrs: mustprogress uwtable
define ptr @_ZNK32pxrInternal_v0_24__pxrReserved__16SdfValueTypeName12GetArrayTypeEv(ptr noundef nonnull readonly align 8 captures(none) dereferenceable(8) %0) local_unnamed_addr #1 align 2 {
  %2 = alloca %"class.pxrInternal_v0_24__pxrReserved__::SdfValueTypeName", align 8
  %3 = load ptr, ptr %0, align 8
  %4 = getelementptr inbounds nuw i8, ptr %3, i64 24
  %5 = load ptr, ptr %4, align 8
  call void @_ZN32pxrInternal_v0_24__pxrReserved__16SdfValueTypeNameC1EPKNS_17Sdf_ValueTypeImplE(ptr noundef nonnull align 8 dereferenceable(8) %2, ptr noundef %5)
  %6 = load ptr, ptr %2, align 8
  ret ptr %6
}